target datalayout = "e-m:e-p270:32:32-p271:32:32-p272:64:64-i64:64-i128:128-f80:128-n8:16:32:64-S128"
target triple = "x86_64-pc-linux-gnu"

%struct.Aig_Obj_t_ = type { %union.anon, ptr, ptr, i64, i32, i32, %union.anon.0 }
%union.anon = type { ptr }
%union.anon.0 = type { ptr }
%struct.Aig_Man_t_ = type { ptr, ptr, ptr, ptr, ptr, ptr, ptr, %struct.Aig_Obj_t_, i32, i32, i32, i32, i32, i32, [7 x i32], i32, ptr, i32, ptr, i32, ptr, i32, i32, i32, ptr, i32, i32, i32, i32, i32, ptr, ptr, i32, ptr, ptr, i32, ptr, ptr, i32, i32, i32, ptr, ptr, ptr, ptr, ptr, ptr, ptr, ptr, ptr, ptr, ptr, ptr, ptr, ptr, i32, ptr, ptr, ptr, ptr, i32, i64, i64, i64, ptr, ptr }

; Function Attrs: inlinehint nounwind uwtable
define internal i32 @Aig_IsComplement(ptr noundef %0) #2 {
  %2 = alloca ptr, align 8
  store ptr %0, ptr %2, align 8, !tbaa !8
  %3 = load ptr, ptr %2, align 8, !tbaa !8
  %4 = ptrtoint ptr %3 to i64
  %5 = and i64 %4, 1
  %6 = trunc i64 %5 to i32
  ret i32 %6
}

; Function Attrs: inlinehint nounwind uwtable
define internal i32 @Abc_MaxInt(i32 noundef %0, i32 noundef %1) #2 {
  %3 = alloca i32, align 4
  %4 = alloca i32, align 4
  store i32 %0, ptr %3, align 4, !tbaa !23
  store i32 %1, ptr %4, align 4, !tbaa !23
  %5 = load i32, ptr %3, align 4, !tbaa !23
  %6 = load i32, ptr %4, align 4, !tbaa !23
  %7 = icmp sgt i32 %5, %6
  br i1 %7, label %8, label %10

8:                                                ; preds = %2
  %9 = load i32, ptr %3, align 4, !tbaa !23
  br label %12

10:                                               ; preds = %2
  %11 = load i32, ptr %4, align 4, !tbaa !23
  br label %12

12:                                               ; preds = %10, %8
  %13 = phi i32 [ %9, %8 ], [ %11, %10 ]
  ret i32 %13
}

; Function Attrs: inlinehint nounwind uwtable
define internal i32 @Aig_ObjIsExor(ptr noundef %0) #2 {
  %2 = alloca ptr, align 8
  store ptr %0, ptr %2, align 8, !tbaa !8
  %3 = load ptr, ptr %2, align 8, !tbaa !8
  %4 = getelementptr inbounds nuw %struct.Aig_Obj_t_, ptr %3, i32 0, i32 3
  %5 = load i64, ptr %4, align 8
  %6 = and i64 %5, 7
  %7 = trunc i64 %6 to i32
  %8 = icmp eq i32 %7, 6
  %9 = zext i1 %8 to i32
  ret i32 %9
}

; Function Attrs: inlinehint nounwind uwtable
define internal ptr @Aig_ObjFanin1(ptr noundef %0) #2 {
  %2 = alloca ptr, align 8
  store ptr %0, ptr %2, align 8, !tbaa !8
  %3 = load ptr, ptr %2, align 8, !tbaa !8
  %4 = getelementptr inbounds nuw %struct.Aig_Obj_t_, ptr %3, i32 0, i32 2
  %5 = load ptr, ptr %4, align 8, !tbaa !35
  %6 = call ptr @Aig_Regular(ptr noundef %5)
  ret ptr %6
}

; Function Attrs: inlinehint nounwind uwtable
define internal ptr @Aig_Regular(ptr noundef %0) #2 {
  %2 = alloca ptr, align 8
  store ptr %0, ptr %2, align 8, !tbaa !8
  %3 = load ptr, ptr %2, align 8, !tbaa !8
  %4 = ptrtoint ptr %3 to i64
  %5 = and i64 %4, -2
  %6 = inttoptr i64 %5 to ptr
  ret ptr %6
}

; Function Attrs: inlinehint nounwind uwtable
define internal i32 @Aig_ObjRefs(ptr noundef %0) #2 {
  %2 = alloca ptr, align 8
  store ptr %0, ptr %2, align 8, !tbaa !8
  %3 = load ptr, ptr %2, align 8, !tbaa !8
  %4 = getelementptr inbounds nuw %struct.Aig_Obj_t_, ptr %3, i32 0, i32 3
  %5 = load i64, ptr %4, align 8
  %6 = lshr i64 %5, 6
  %7 = and i64 %6, 67108863
  %8 = trunc i64 %7 to i32
  ret i32 %8
}

; Function Attrs: inlinehint nounwind uwtable
define internal i32 @Aig_ObjIsConst1(ptr noundef %0) #2 {
  %2 = alloca ptr, align 8
  store ptr %0, ptr %2, align 8, !tbaa !8
  %3 = load ptr, ptr %2, align 8, !tbaa !8
  %4 = getelementptr inbounds nuw %struct.Aig_Obj_t_, ptr %3, i32 0, i32 3
  %5 = load i64, ptr %4, align 8
  %6 = and i64 %5, 7
  %7 = trunc i64 %6 to i32
  %8 = icmp eq i32 %7, 1
  %9 = zext i1 %8 to i32
  ret i32 %9
}

; Function Attrs: inlinehint nounwind uwtable
define internal i32 @Aig_ObjIsCi(ptr noundef %0) #2 {
  %2 = alloca ptr, align 8
  store ptr %0, ptr %2, align 8, !tbaa !8
  %3 = load ptr, ptr %2, align 8, !tbaa !8
  %4 = getelementptr inbounds nuw %struct.Aig_Obj_t_, ptr %3, i32 0, i32 3
  %5 = load i64, ptr %4, align 8
  %6 = and i64 %5, 7
  %7 = trunc i64 %6 to i32
  %8 = icmp eq i32 %7, 2
  %9 = zext i1 %8 to i32
  ret i32 %9
}

; Function Attrs: inlinehint nounwind uwtable
define internal void @Aig_ObjRef(ptr noundef %0) #2 {
  %2 = alloca ptr, align 8
  store ptr %0, ptr %2, align 8, !tbaa !8
  %3 = load ptr, ptr %2, align 8, !tbaa !8
  %4 = getelementptr inbounds nuw %struct.Aig_Obj_t_, ptr %3, i32 0, i32 3
  %5 = load i64, ptr %4, align 8
  %6 = lshr i64 %5, 6
  %7 = and i64 %6, 67108863
  %8 = trunc i64 %7 to i32
  %9 = add i32 %8, 1
  %10 = zext i32 %9 to i64
  %11 = load i64, ptr %4, align 8
  %12 = and i64 %10, 67108863
  %13 = shl i64 %12, 6
  %14 = and i64 %11, -4294967233
  %15 = or i64 %14, %13
  store i64 %15, ptr %4, align 8
  ret void
}

; Function Attrs: inlinehint nounwind uwtable
define internal i32 @Aig_ObjPhaseReal(ptr noundef %0) #2 {
  %2 = alloca ptr, align 8
  store ptr %0, ptr %2, align 8, !tbaa !8
  %3 = load ptr, ptr %2, align 8, !tbaa !8
  %4 = icmp ne ptr %3, null
  br i1 %4, label %5, label %16

5:                                                ; preds = %1
  %6 = load ptr, ptr %2, align 8, !tbaa !8
  %7 = call ptr @Aig_Regular(ptr noundef %6)
  %8 = getelementptr inbounds nuw %struct.Aig_Obj_t_, ptr %7, i32 0, i32 3
  %9 = load i64, ptr %8, align 8
  %10 = lshr i64 %9, 3
  %11 = and i64 %10, 1
  %12 = trunc i64 %11 to i32
  %13 = load ptr, ptr %2, align 8, !tbaa !8
  %14 = call i32 @Aig_IsComplement(ptr noundef %13)
  %15 = xor i32 %12, %14
  br label %17

16:                                               ; preds = %1
  br label %17

17:                                               ; preds = %16, %5
  %18 = phi i32 [ %15, %5 ], [ 1, %16 ]
  ret i32 %18
}

; Function Attrs: inlinehint nounwind uwtable
define internal i32 @Aig_ObjLevelNew(ptr noundef %0) #2 {
  %2 = alloca ptr, align 8
  store ptr %0, ptr %2, align 8, !tbaa !8
  %3 = load ptr, ptr %2, align 8, !tbaa !8
  %4 = call ptr @Aig_ObjFanin1(ptr noundef %3)
  %5 = icmp ne ptr %4, null
  br i1 %5, label %6, label %26

6:                                                ; preds = %1
  %7 = load ptr, ptr %2, align 8, !tbaa !8
  %8 = call i32 @Aig_ObjIsExor(ptr noundef %7)
  %9 = add nsw i32 1, %8
  %10 = load ptr, ptr %2, align 8, !tbaa !8
  %11 = call ptr @Aig_ObjFanin0(ptr noundef %10)
  %12 = getelementptr inbounds nuw %struct.Aig_Obj_t_, ptr %11, i32 0, i32 3
  %13 = load i64, ptr %12, align 8
  %14 = lshr i64 %13, 32
  %15 = and i64 %14, 16777215
  %16 = trunc i64 %15 to i32
  %17 = load ptr, ptr %2, align 8, !tbaa !8
  %18 = call ptr @Aig_ObjFanin1(ptr noundef %17)
  %19 = getelementptr inbounds nuw %struct.Aig_Obj_t_, ptr %18, i32 0, i32 3
  %20 = load i64, ptr %19, align 8
  %21 = lshr i64 %20, 32
  %22 = and i64 %21, 16777215
  %23 = trunc i64 %22 to i32
  %24 = call i32 @Abc_MaxInt(i32 noundef %16, i32 noundef %23)
  %25 = add nsw i32 %9, %24
  br label %34

26:                                               ; preds = %1
  %27 = load ptr, ptr %2, align 8, !tbaa !8
  %28 = call ptr @Aig_ObjFanin0(ptr noundef %27)
  %29 = getelementptr inbounds nuw %struct.Aig_Obj_t_, ptr %28, i32 0, i32 3
  %30 = load i64, ptr %29, align 8
  %31 = lshr i64 %30, 32
  %32 = and i64 %31, 16777215
  %33 = trunc i64 %32 to i32
  br label %34

34:                                               ; preds = %26, %6
  %35 = phi i32 [ %25, %6 ], [ %33, %26 ]
  ret i32 %35
}

; Function Attrs: inlinehint nounwind uwtable
define internal void @Aig_ObjDeref(ptr noundef %0) #2 {
  %2 = alloca ptr, align 8
  store ptr %0, ptr %2, align 8, !tbaa !8
  %3 = load ptr, ptr %2, align 8, !tbaa !8
  %4 = getelementptr inbounds nuw %struct.Aig_Obj_t_, ptr %3, i32 0, i32 3
  %5 = load i64, ptr %4, align 8
  %6 = lshr i64 %5, 6
  %7 = and i64 %6, 67108863
  %8 = trunc i64 %7 to i32
  %9 = add i32 %8, -1
  %10 = zext i32 %9 to i64
  %11 = load i64, ptr %4, align 8
  %12 = and i64 %10, 67108863
  %13 = shl i64 %12, 6
  %14 = and i64 %11, -4294967233
  %15 = or i64 %14, %13
  store i64 %15, ptr %4, align 8
  ret void
}

; Function Attrs: inlinehint nounwind uwtable
define internal ptr @Aig_ObjFanin0(ptr noundef %0) #2 {
  %2 = alloca ptr, align 8
  store ptr %0, ptr %2, align 8, !tbaa !8
  %3 = load ptr, ptr %2, align 8, !tbaa !8
  %4 = getelementptr inbounds nuw %struct.Aig_Obj_t_, ptr %3, i32 0, i32 1
  %5 = load ptr, ptr %4, align 8, !tbaa !34
  %6 = call ptr @Aig_Regular(ptr noundef %5)
  ret ptr %6
}

; Function Attrs: nounwind uwtable
define void @Aig_ObjPatchFanin0(ptr noundef %0, ptr noundef %1, ptr noundef %2) #0 {
  %4 = alloca ptr, align 8
  %5 = alloca ptr, align 8
  %6 = alloca ptr, align 8
  %7 = alloca ptr, align 8
  store ptr %0, ptr %4, align 8, !tbaa !3
  store ptr %1, ptr %5, align 8, !tbaa !8
  store ptr %2, ptr %6, align 8, !tbaa !8
  call void @llvm.lifetime.start.p0(i64 8, ptr %7) #8
  %8 = load ptr, ptr %5, align 8, !tbaa !8
  %9 = call ptr @Aig_ObjFanin0(ptr noundef %8)
  store ptr %9, ptr %7, align 8, !tbaa !8
  %10 = load ptr, ptr %4, align 8, !tbaa !3
  %11 = getelementptr inbounds nuw %struct.Aig_Man_t_, ptr %10, i32 0, i32 18
  %12 = load ptr, ptr %11, align 8, !tbaa !36
  %13 = icmp ne ptr %12, null
  br i1 %13, label %14, label %18

14:                                               ; preds = %3
  %15 = load ptr, ptr %4, align 8, !tbaa !3
  %16 = load ptr, ptr %7, align 8, !tbaa !8
  %17 = load ptr, ptr %5, align 8, !tbaa !8
  call void @Aig_ObjRemoveFanout(ptr noundef %15, ptr noundef %16, ptr noundef %17)
  br label %18

18:                                               ; preds = %14, %3
  %19 = load ptr, ptr %7, align 8, !tbaa !8
  call void @Aig_ObjDeref(ptr noundef %19)
  %20 = load ptr, ptr %6, align 8, !tbaa !8
  %21 = load ptr, ptr %5, align 8, !tbaa !8
  %22 = getelementptr inbounds nuw %struct.Aig_Obj_t_, ptr %21, i32 0, i32 1
  store ptr %20, ptr %22, align 8, !tbaa !34
  %23 = load ptr, ptr %5, align 8, !tbaa !8
  %24 = call i32 @Aig_ObjLevelNew(ptr noundef %23)
  %25 = load ptr, ptr %5, align 8, !tbaa !8
  %26 = getelementptr inbounds nuw %struct.Aig_Obj_t_, ptr %25, i32 0, i32 3
  %27 = zext i32 %24 to i64
  %28 = load i64, ptr %26, align 8
  %29 = and i64 %27, 16777215
  %30 = shl i64 %29, 32
  %31 = and i64 %28, -72057589742960641
  %32 = or i64 %31, %30
  store i64 %32, ptr %26, align 8
  %33 = load ptr, ptr %5, align 8, !tbaa !8
  %34 = getelementptr inbounds nuw %struct.Aig_Obj_t_, ptr %33, i32 0, i32 1
  %35 = load ptr, ptr %34, align 8, !tbaa !34
  %36 = call i32 @Aig_ObjPhaseReal(ptr noundef %35)
  %37 = load ptr, ptr %5, align 8, !tbaa !8
  %38 = getelementptr inbounds nuw %struct.Aig_Obj_t_, ptr %37, i32 0, i32 3
  %39 = zext i32 %36 to i64
  %40 = load i64, ptr %38, align 8
  %41 = and i64 %39, 1
  %42 = shl i64 %41, 3
  %43 = and i64 %40, -9
  %44 = or i64 %43, %42
  store i64 %44, ptr %38, align 8
  %45 = load ptr, ptr %4, align 8, !tbaa !3
  %46 = getelementptr inbounds nuw %struct.Aig_Man_t_, ptr %45, i32 0, i32 18
  %47 = load ptr, ptr %46, align 8, !tbaa !36
  %48 = icmp ne ptr %47, null
  br i1 %48, label %49, label %54

49:                                               ; preds = %18
  %50 = load ptr, ptr %4, align 8, !tbaa !3
  %51 = load ptr, ptr %5, align 8, !tbaa !8
  %52 = call ptr @Aig_ObjFanin0(ptr noundef %51)
  %53 = load ptr, ptr %5, align 8, !tbaa !8
  call void @Aig_ObjAddFanout(ptr noundef %50, ptr noundef %52, ptr noundef %53)
  br label %54

54:                                               ; preds = %49, %18
  %55 = load ptr, ptr %5, align 8, !tbaa !8
  %56 = call ptr @Aig_ObjFanin0(ptr noundef %55)
  call void @Aig_ObjRef(ptr noundef %56)
  %57 = load ptr, ptr %7, align 8, !tbaa !8
  %58 = call i32 @Aig_ObjIsCi(ptr noundef %57)
  %59 = icmp ne i32 %58, 0
  br i1 %59, label %71, label %60

60:                                               ; preds = %54
  %61 = load ptr, ptr %7, align 8, !tbaa !8
  %62 = call i32 @Aig_ObjIsConst1(ptr noundef %61)
  %63 = icmp ne i32 %62, 0
  br i1 %63, label %71, label %64

64:                                               ; preds = %60
  %65 = load ptr, ptr %7, align 8, !tbaa !8
  %66 = call i32 @Aig_ObjRefs(ptr noundef %65)
  %67 = icmp eq i32 %66, 0
  br i1 %67, label %68, label %71

68:                                               ; preds = %64
  %69 = load ptr, ptr %4, align 8, !tbaa !3
  %70 = load ptr, ptr %7, align 8, !tbaa !8
  call void @Aig_ObjDelete_rec(ptr noundef %69, ptr noundef %70, i32 noundef 1)
  br label %71

71:                                               ; preds = %68, %64, %60, %54
  call void @llvm.lifetime.end.p0(i64 8, ptr %7) #8
  ret void
}