; Function Attrs: nounwind uwtable
define void @Aig_ObjPatchFanin0(ptr noundef %0, ptr noundef %1, ptr noundef %2) local_unnamed_addr #0 {
  %4 = getelementptr i8, ptr %1, i64 8
  %.val26 = load ptr, ptr %4, align 8, !tbaa !31
  %5 = ptrtoint ptr %.val26 to i64
  %6 = and i64 %5, -2
  %7 = inttoptr i64 %6 to ptr
  %8 = getelementptr inbounds nuw i8, ptr %0, i64 176
  %9 = load ptr, ptr %8, align 8, !tbaa !33
  %.not = icmp eq ptr %9, null
  br i1 %.not, label %11, label %10

10:                                               ; preds = %3
  tail call void @Aig_ObjRemoveFanout(ptr noundef nonnull %0, ptr noundef %7, ptr noundef nonnull %1) #11
  br label %11

11:                                               ; preds = %10, %3
  %12 = getelementptr inbounds nuw i8, ptr %7, i64 24
  %13 = load i64, ptr %12, align 8
  %14 = add i64 %13, 4294967232
  %15 = and i64 %14, 4294967232
  %16 = and i64 %13, -4294967233
  %17 = or disjoint i64 %15, %16
  store i64 %17, ptr %12, align 8
  store ptr %2, ptr %4, align 8, !tbaa !31
  %18 = getelementptr i8, ptr %1, i64 16
  %.val7.i = load ptr, ptr %18, align 8, !tbaa !32
  %19 = ptrtoint ptr %.val7.i to i64
  %20 = and i64 %19, -2
  %.not.i = icmp eq i64 %20, 0
  br i1 %.not.i, label %42, label %21

21:                                               ; preds = %11
  %22 = inttoptr i64 %20 to ptr
  %23 = getelementptr i8, ptr %1, i64 24
  %.val8.i = load i64, ptr %23, align 8
  %24 = and i64 %.val8.i, 7
  %25 = icmp eq i64 %24, 6
  %26 = select i1 %25, i32 2, i32 1
  %27 = ptrtoint ptr %2 to i64
  %28 = and i64 %27, -2
  %29 = inttoptr i64 %28 to ptr
  %30 = getelementptr inbounds nuw i8, ptr %29, i64 24
  %31 = load i64, ptr %30, align 8
  %32 = lshr i64 %31, 32
  %33 = trunc nuw i64 %32 to i32
  %34 = and i32 %33, 16777215
  %35 = getelementptr inbounds nuw i8, ptr %22, i64 24
  %36 = load i64, ptr %35, align 8
  %37 = lshr i64 %36, 32
  %38 = trunc nuw i64 %37 to i32
  %39 = and i32 %38, 16777215
  %40 = tail call i32 @llvm.umax.i32(i32 %34, i32 %39)
  %41 = add nuw nsw i32 %40, %26
  br label %Aig_ObjLevelNew.exit

42:                                               ; preds = %11
  %43 = ptrtoint ptr %2 to i64
  %44 = and i64 %43, -2
  %45 = inttoptr i64 %44 to ptr
  %46 = getelementptr inbounds nuw i8, ptr %45, i64 24
  %47 = load i64, ptr %46, align 8
  %48 = lshr i64 %47, 32
  %49 = trunc nuw i64 %48 to i32
  %.phi.trans.insert = getelementptr inbounds nuw i8, ptr %1, i64 24
  %.pre = load i64, ptr %.phi.trans.insert, align 8
  br label %Aig_ObjLevelNew.exit

Aig_ObjLevelNew.exit:                             ; preds = %21, %42
  %50 = phi i64 [ %.val8.i, %21 ], [ %.pre, %42 ]
  %.in = phi i32 [ %41, %21 ], [ %49, %42 ]
  %51 = and i32 %.in, 16777215
  %52 = getelementptr inbounds nuw i8, ptr %1, i64 24
  %53 = zext nneg i32 %51 to i64
  %54 = shl nuw nsw i64 %53, 32
  %55 = and i64 %50, -72057589742960641
  %56 = or disjoint i64 %54, %55
  store i64 %56, ptr %52, align 8
  %.not.i30 = icmp eq ptr %2, null
  br i1 %.not.i30, label %Aig_ObjPhaseReal.exit, label %57

57:                                               ; preds = %Aig_ObjLevelNew.exit
  %58 = ptrtoint ptr %2 to i64
  %59 = and i64 %58, -2
  %60 = inttoptr i64 %59 to ptr
  %61 = getelementptr inbounds nuw i8, ptr %60, i64 24
  %62 = load i64, ptr %61, align 8
  %63 = shl i64 %58, 3
  %64 = xor i64 %62, %63
  %65 = and i64 %64, 8
  br label %Aig_ObjPhaseReal.exit

Aig_ObjPhaseReal.exit:                            ; preds = %Aig_ObjLevelNew.exit, %57
  %66 = phi i64 [ %65, %57 ], [ 8, %Aig_ObjLevelNew.exit ]
  %67 = and i64 %56, -9
  %68 = or disjoint i64 %66, %67
  store i64 %68, ptr %52, align 8
  %69 = load ptr, ptr %8, align 8, !tbaa !33
  %.not22 = icmp eq ptr %69, null
  br i1 %.not22, label %74, label %70

70:                                               ; preds = %Aig_ObjPhaseReal.exit
  %71 = ptrtoint ptr %2 to i64
  %72 = and i64 %71, -2
  %73 = inttoptr i64 %72 to ptr
  tail call void @Aig_ObjAddFanout(ptr noundef nonnull %0, ptr noundef %73, ptr noundef nonnull %1) #11
  %.val.pre = load ptr, ptr %4, align 8, !tbaa !31
  br label %74

74:                                               ; preds = %70, %Aig_ObjPhaseReal.exit
  %.val = phi ptr [ %.val.pre, %70 ], [ %2, %Aig_ObjPhaseReal.exit ]
  %75 = ptrtoint ptr %.val to i64
  %76 = and i64 %75, -2
  %77 = inttoptr i64 %76 to ptr
  %78 = getelementptr inbounds nuw i8, ptr %77, i64 24
  %79 = load i64, ptr %78, align 8
  %80 = add i64 %79, 64
  %81 = and i64 %80, 4294967232
  %82 = and i64 %79, -4294967233
  %83 = or disjoint i64 %81, %82
  store i64 %83, ptr %78, align 8
  %.val28 = load i64, ptr %12, align 8
  %84 = and i64 %.val28, 7
  %.not33 = icmp eq i64 %84, 2
  br i1 %.not33, label %90, label %85

85:                                               ; preds = %74
  %86 = icmp ne i64 %84, 1
  %87 = and i64 %.val28, 4294967232
  %88 = icmp eq i64 %87, 0
  %or.cond = and i1 %86, %88
  br i1 %or.cond, label %89, label %90

89:                                               ; preds = %85
  tail call void @Aig_ObjDelete_rec(ptr noundef nonnull %0, ptr noundef nonnull %7, i32 noundef 1)
  br label %90

90:                                               ; preds = %89, %85, %74
  ret void
}